; Function Attrs: mustprogress nounwind uwtable
define void @_ZN14VrmlTranslator5TokenD2Ev(ptr nocapture noundef nonnull align 8 dereferenceable(32) %0) unnamed_addr #0 align 2 {
  %2 = getelementptr inbounds i8, ptr %0, i64 16
  %3 = load ptr, ptr %2, align 8
  %4 = icmp eq ptr %3, null
  br i1 %4, label %_Z18coco_string_deleteRPw.exit, label %5

5:                                                ; preds = %1
  tail call void @_ZdaPv(ptr noundef nonnull %3) #20
  br label %_Z18coco_string_deleteRPw.exit

_Z18coco_string_deleteRPw.exit:                   ; preds = %1, %5
  store ptr null, ptr %2, align 8
  ret void
}